; Function Attrs: mustprogress uwtable
define noundef zeroext i1 @_ZN32pxrInternal_v0_24__pxrReserved__8JsWriter7_StringEPKcm(ptr noundef nonnull readonly align 8 captures(none) dereferenceable(8) %0, ptr noundef %1, i64 noundef %2) local_unnamed_addr #3 align 2 {
  %4 = load ptr, ptr %0, align 8
  %.val = load ptr, ptr %4, align 8
  %5 = load ptr, ptr %.val, align 8
  %6 = getelementptr inbounds nuw i8, ptr %5, i64 72
  %7 = load ptr, ptr %6, align 8
  %8 = tail call noundef zeroext i1 %7(ptr noundef nonnull align 8 dereferenceable(8) %.val, ptr noundef %1, i64 noundef %2)
  ret i1 %8
}